; Function Attrs: mustprogress uwtable
define void @_ZNK32pxrInternal_v0_24__pxrReserved__17Usd_InstanceCache38GetPrimsInPrototypesUsingPrimIndexPathERKNS_7SdfPathE(ptr dead_on_unwind noalias writable sret(%"class.std::vector.66") align 8 %0, ptr noundef nonnull align 8 dereferenceable(432) %1, ptr noundef nonnull align 4 dereferenceable(8) %2) local_unnamed_addr #0 align 2 personality ptr @__gxx_personality_v0 {
  tail call void @llvm.memset.p0.i64(ptr noundef nonnull align 8 dereferenceable(24) %0, i8 0, i64 24, i1 false)
  %4 = invoke noundef zeroext i1 @_ZNK32pxrInternal_v0_24__pxrReserved__17Usd_InstanceCache27_PrototypeUsesPrimIndexPathERKNS_7SdfPathEPSt6vectorIS1_SaIS1_EE(ptr noundef nonnull align 8 dereferenceable(432) %1, ptr noundef nonnull align 4 dereferenceable(8) %2, ptr noundef nonnull %0)
          to label %7 unwind label %5

5:                                                ; preds = %3
  %6 = landingpad { ptr, i32 }
          cleanup
  tail call void @_ZNSt6vectorIN32pxrInternal_v0_24__pxrReserved__7SdfPathESaIS1_EED2Ev(ptr noundef nonnull align 8 dereferenceable(24) %0) #16
  resume { ptr, i32 } %6

7:                                                ; preds = %3
  ret void
}